target datalayout = "e-m:e-p270:32:32-p271:32:32-p272:64:64-i64:64-i128:128-f80:128-n8:16:32:64-S128"
target triple = "x86_64-pc-linux-gnu"

%"class.cv::TermCriteria" = type { i32, i32, double }
%"class.cv::Size_" = type { i32, i32 }
%"class.cv::(anonymous namespace)::SparsePyrLKOpticalFlowImpl" = type { %"class.cv::SparsePyrLKOpticalFlow", %"class.cv::Size_", i32, %"class.cv::TermCriteria", i32, double }
%"class.cv::SparsePyrLKOpticalFlow" = type { %"class.cv::SparseOpticalFlow" }
%"class.cv::SparseOpticalFlow" = type { %"class.cv::Algorithm" }
%"class.cv::Algorithm" = type { ptr }

; Function Attrs: mustprogress nounwind uwtable
define internal { i64, double } @_ZNK2cv12_GLOBAL__N_126SparsePyrLKOpticalFlowImpl15getTermCriteriaEv(ptr noundef nonnull align 8 dereferenceable(56) %0) unnamed_addr #12 align 2 {
  %2 = alloca %"class.cv::TermCriteria", align 8
  %3 = alloca ptr, align 8
  store ptr %0, ptr %3, align 8, !tbaa !250
  %4 = load ptr, ptr %3, align 8
  %5 = getelementptr inbounds nuw %"class.cv::(anonymous namespace)::SparsePyrLKOpticalFlowImpl", ptr %4, i32 0, i32 3
  call void @llvm.memcpy.p0.p0.i64(ptr align 8 %2, ptr align 8 %5, i64 16, i1 false), !tbaa.struct !74
  %6 = load { i64, double }, ptr %2, align 8
  ret { i64, double } %6
}